; ModuleID = '45/1461.c'
source_filename = "45/1461.c"
target datalayout = "e-m:e-p270:32:32-p271:32:32-p272:64:64-i64:64-f80:128-n8:16:32:64-S128"
target triple = "x86_64-pc-linux-gnu"

@.str = private unnamed_addr constant [3 x i8] c"%s\00", align 1
@.str.1 = private unnamed_addr constant [3 x i8] c"%d\00", align 1

; Function Attrs: noinline nounwind uwtable
define dso_local i32 @main() #0 {
  %1 = alloca i32, align 4
  %2 = alloca [2 x [50 x i8]], align 16
  %3 = alloca i32, align 4
  %4 = alloca i32, align 4
  %5 = alloca i32, align 4
  %6 = alloca i32, align 4
  %7 = alloca i32, align 4
  store i32 0, i32* %1, align 4
  store i32 0, i32* %7, align 4
  store i32 0, i32* %3, align 4
  br label %8

8:                                                ; preds = %17, %0
  %9 = load i32, i32* %3, align 4
  %10 = icmp slt i32 %9, 2
  br i1 %10, label %11, label %20

11:                                               ; preds = %8
  %12 = load i32, i32* %3, align 4
  %13 = sext i32 %12 to i64
  %14 = getelementptr inbounds [2 x [50 x i8]], [2 x [50 x i8]]* %2, i64 0, i64 %13
  %15 = getelementptr inbounds [50 x i8], [50 x i8]* %14, i64 0, i64 0
  %16 = call i32 (i8*, ...) @__isoc99_scanf(i8* getelementptr inbounds ([3 x i8], [3 x i8]* @.str, i64 0, i64 0), i8* %15)
  br label %17

17:                                               ; preds = %11
  %18 = load i32, i32* %3, align 4
  %19 = add nsw i32 %18, 1
  store i32 %19, i32* %3, align 4
  br label %8

20:                                               ; preds = %8
  %21 = getelementptr inbounds [2 x [50 x i8]], [2 x [50 x i8]]* %2, i64 0, i64 1
  %22 = getelementptr inbounds [50 x i8], [50 x i8]* %21, i64 0, i64 0
  %23 = call i64 @strlen(i8* %22) #3
  %24 = trunc i64 %23 to i32
  store i32 %24, i32* %6, align 4
  %25 = getelementptr inbounds [2 x [50 x i8]], [2 x [50 x i8]]* %2, i64 0, i64 0
  %26 = getelementptr inbounds [50 x i8], [50 x i8]* %25, i64 0, i64 0
  %27 = call i64 @strlen(i8* %26) #3
  %28 = trunc i64 %27 to i32
  store i32 %28, i32* %5, align 4
  store i32 0, i32* %4, align 4
  br label %29

29:                                               ; preds = %83, %20
  %30 = load i32, i32* %4, align 4
  %31 = load i32, i32* %6, align 4
  %32 = icmp slt i32 %30, %31
  br i1 %32, label %33, label %86

33:                                               ; preds = %29
  %34 = getelementptr inbounds [2 x [50 x i8]], [2 x [50 x i8]]* %2, i64 0, i64 1
  %35 = load i32, i32* %4, align 4
  %36 = sext i32 %35 to i64
  %37 = getelementptr inbounds [50 x i8], [50 x i8]* %34, i64 0, i64 %36
  %38 = load i8, i8* %37, align 1
  %39 = sext i8 %38 to i32
  %40 = getelementptr inbounds [2 x [50 x i8]], [2 x [50 x i8]]* %2, i64 0, i64 0
  %41 = getelementptr inbounds [50 x i8], [50 x i8]* %40, i64 0, i64 0
  %42 = load i8, i8* %41, align 16
  %43 = sext i8 %42 to i32
  %44 = icmp eq i32 %39, %43
  br i1 %44, label %45, label %82

45:                                               ; preds = %33
  store i32 1, i32* %3, align 4
  br label %46

46:                                               ; preds = %78, %45
  %47 = load i32, i32* %3, align 4
  %48 = load i32, i32* %5, align 4
  %49 = icmp slt i32 %47, %48
  br i1 %49, label %50, label %81

50:                                               ; preds = %46
  %51 = getelementptr inbounds [2 x [50 x i8]], [2 x [50 x i8]]* %2, i64 0, i64 1
  %52 = load i32, i32* %4, align 4
  %53 = load i32, i32* %3, align 4
  %54 = add nsw i32 %52, %53
  %55 = sext i32 %54 to i64
  %56 = getelementptr inbounds [50 x i8], [50 x i8]* %51, i64 0, i64 %55
  %57 = load i8, i8* %56, align 1
  %58 = sext i8 %57 to i32
  %59 = getelementptr inbounds [2 x [50 x i8]], [2 x [50 x i8]]* %2, i64 0, i64 0
  %60 = load i32, i32* %3, align 4
  %61 = sext i32 %60 to i64
  %62 = getelementptr inbounds [50 x i8], [50 x i8]* %59, i64 0, i64 %61
  %63 = load i8, i8* %62, align 1
  %64 = sext i8 %63 to i32
  %65 = icmp eq i32 %58, %64
  br i1 %65, label %66, label %69

66:                                               ; preds = %50
  %67 = load i32, i32* %7, align 4
  %68 = add nsw i32 %67, 1
  store i32 %68, i32* %7, align 4
  br label %69

69:                                               ; preds = %66, %50
  %70 = load i32, i32* %7, align 4
  %71 = load i32, i32* %5, align 4
  %72 = sub nsw i32 %71, 1
  %73 = icmp eq i32 %70, %72
  br i1 %73, label %74, label %77

74:                                               ; preds = %69
  %75 = load i32, i32* %4, align 4
  %76 = call i32 (i8*, ...) @printf(i8* getelementptr inbounds ([3 x i8], [3 x i8]* @.str.1, i64 0, i64 0), i32 %75)
  br label %77

77:                                               ; preds = %74, %69
  br label %78

78:                                               ; preds = %77
  %79 = load i32, i32* %3, align 4
  %80 = add nsw i32 %79, 1
  store i32 %80, i32* %3, align 4
  br label %46

81:                                               ; preds = %46
  br label %82

82:                                               ; preds = %81, %33
  br label %83

83:                                               ; preds = %82
  %84 = load i32, i32* %4, align 4
  %85 = add nsw i32 %84, 1
  store i32 %85, i32* %4, align 4
  br label %29

86:                                               ; preds = %29
  ret i32 0
}

declare dso_local i32 @__isoc99_scanf(i8*, ...) #1

; Function Attrs: nounwind readonly
declare dso_local i64 @strlen(i8*) #2

declare dso_local i32 @printf(i8*, ...) #1


!llvm.module.flags = !{!0}
!llvm.ident = !{!1}

!0 = !{i32 1, !"wchar_size", i32 4}
!1 = !{!"clang version 10.0.0-4ubuntu1 "}
